target datalayout = "e-m:e-p270:32:32-p271:32:32-p272:64:64-i64:64-i128:128-f80:128-n8:16:32:64-S128"
target triple = "x86_64-pc-linux-gnu"

%"class.pxrInternal_v0_24__pxrReserved__::TfSmallVector" = type { %"union.pxrInternal_v0_24__pxrReserved__::TfSmallVectorBase::_DataUnion", i32, i32 }
%"union.pxrInternal_v0_24__pxrReserved__::TfSmallVectorBase::_DataUnion" = type { ptr, [120 x i8] }
%"class.pxrInternal_v0_24__pxrReserved__::TfSmallVector.18" = type { %"union.pxrInternal_v0_24__pxrReserved__::TfSmallVectorBase::_DataUnion.19", i32, i32 }
%"union.pxrInternal_v0_24__pxrReserved__::TfSmallVectorBase::_DataUnion.19" = type { ptr, [248 x i8] }

; Function Attrs: mustprogress nounwind uwtable
define linkonce_odr void @_ZN32pxrInternal_v0_24__pxrReserved__13TfSmallVectorINS_20HdSceneIndexObserver14AddedPrimEntryELj16EEC2Ev(ptr noundef nonnull align 8 dereferenceable(264) %0) unnamed_addr #2 comdat align 2 {
  %2 = alloca ptr, align 8
  store ptr %0, ptr %2, align 8
  %3 = load ptr, ptr %2, align 8
  %4 = getelementptr inbounds nuw %"class.pxrInternal_v0_24__pxrReserved__::TfSmallVector.18", ptr %3, i32 0, i32 1
  store i32 0, ptr %4, align 8
  %5 = getelementptr inbounds nuw %"class.pxrInternal_v0_24__pxrReserved__::TfSmallVector.18", ptr %3, i32 0, i32 2
  store i32 16, ptr %5, align 4
  ret void
}

; Function Attrs: mustprogress nounwind uwtable
define linkonce_odr void @_ZN32pxrInternal_v0_24__pxrReserved__13TfSmallVectorINS_20HdSceneIndexObserver16RemovedPrimEntryELj16EEC2Ev(ptr noundef nonnull align 8 dereferenceable(136) %0) unnamed_addr #2 comdat align 2 {
  %2 = alloca ptr, align 8
  store ptr %0, ptr %2, align 8
  %3 = load ptr, ptr %2, align 8
  %4 = getelementptr inbounds nuw %"class.pxrInternal_v0_24__pxrReserved__::TfSmallVector", ptr %3, i32 0, i32 1
  store i32 0, ptr %4, align 8
  %5 = getelementptr inbounds nuw %"class.pxrInternal_v0_24__pxrReserved__::TfSmallVector", ptr %3, i32 0, i32 2
  store i32 16, ptr %5, align 4
  ret void
}

; Function Attrs: mustprogress uwtable
define void @_ZN32pxrInternal_v0_24__pxrReserved__36HdSingleInputFilteringSceneIndexBase13_PrimsRenamedERKNS_16HdSceneIndexBaseERKNS_13TfSmallVectorINS_20HdSceneIndexObserver16RenamedPrimEntryELj16EEE(ptr noundef nonnull align 8 dereferenceable(152) %0, ptr noundef nonnull align 8 dereferenceable(120) %1, ptr noundef nonnull align 1 %2) unnamed_addr #0 align 2 personality ptr @__gxx_personality_v0 {
  %4 = alloca ptr, align 8
  %5 = alloca ptr, align 8
  %6 = alloca ptr, align 8
  %7 = alloca %"class.pxrInternal_v0_24__pxrReserved__::TfSmallVector", align 8
  %8 = alloca %"class.pxrInternal_v0_24__pxrReserved__::TfSmallVector.18", align 8
  %9 = alloca ptr, align 8
  %10 = alloca i32, align 4
  store ptr %0, ptr %4, align 8
  store ptr %1, ptr %5, align 8
  store ptr %2, ptr %6, align 8
  %11 = load ptr, ptr %4, align 8
  call void @_ZN32pxrInternal_v0_24__pxrReserved__13TfSmallVectorINS_20HdSceneIndexObserver16RemovedPrimEntryELj16EEC2Ev(ptr noundef nonnull align 8 dereferenceable(136) %7)
  invoke void @_ZN32pxrInternal_v0_24__pxrReserved__13TfSmallVectorINS_20HdSceneIndexObserver14AddedPrimEntryELj16EEC2Ev(ptr noundef nonnull align 8 dereferenceable(264) %8)
          to label %12 unwind label %26

12:                                               ; preds = %3
  %13 = load ptr, ptr %5, align 8
  %14 = load ptr, ptr %6, align 8
  invoke void @_ZN32pxrInternal_v0_24__pxrReserved__20HdSceneIndexObserver36ConvertPrimsRenamedToRemovedAndAddedERKNS_16HdSceneIndexBaseERKNS_13TfSmallVectorINS0_16RenamedPrimEntryELj16EEEPNS4_INS0_16RemovedPrimEntryELj16EEEPNS4_INS0_14AddedPrimEntryELj16EEE(ptr noundef nonnull align 8 dereferenceable(120) %13, ptr noundef nonnull align 1 %14, ptr noundef %7, ptr noundef %8)
          to label %15 unwind label %30

15:                                               ; preds = %12
  %16 = load ptr, ptr %5, align 8
  %17 = load ptr, ptr %11, align 8
  %18 = getelementptr inbounds ptr, ptr %17, i64 7
  %19 = load ptr, ptr %18, align 8
  invoke void %19(ptr noundef nonnull align 8 dereferenceable(152) %11, ptr noundef nonnull align 8 dereferenceable(120) %16, ptr noundef nonnull align 8 dereferenceable(136) %7)
          to label %20 unwind label %30

20:                                               ; preds = %15
  %21 = load ptr, ptr %5, align 8
  %22 = load ptr, ptr %11, align 8
  %23 = getelementptr inbounds ptr, ptr %22, i64 6
  %24 = load ptr, ptr %23, align 8
  invoke void %24(ptr noundef nonnull align 8 dereferenceable(152) %11, ptr noundef nonnull align 8 dereferenceable(120) %21, ptr noundef nonnull align 8 dereferenceable(264) %8)
          to label %25 unwind label %30

25:                                               ; preds = %20
  call void @_ZN32pxrInternal_v0_24__pxrReserved__13TfSmallVectorINS_20HdSceneIndexObserver14AddedPrimEntryELj16EED2Ev(ptr noundef nonnull align 8 dereferenceable(264) %8) #11
  call void @_ZN32pxrInternal_v0_24__pxrReserved__13TfSmallVectorINS_20HdSceneIndexObserver16RemovedPrimEntryELj16EED2Ev(ptr noundef nonnull align 8 dereferenceable(136) %7) #11
  ret void

26:                                               ; preds = %3
  %27 = landingpad { ptr, i32 }
          cleanup
  %28 = extractvalue { ptr, i32 } %27, 0
  store ptr %28, ptr %9, align 8
  %29 = extractvalue { ptr, i32 } %27, 1
  store i32 %29, ptr %10, align 4
  br label %34

30:                                               ; preds = %20, %15, %12
  %31 = landingpad { ptr, i32 }
          cleanup
  %32 = extractvalue { ptr, i32 } %31, 0
  store ptr %32, ptr %9, align 8
  %33 = extractvalue { ptr, i32 } %31, 1
  store i32 %33, ptr %10, align 4
  call void @_ZN32pxrInternal_v0_24__pxrReserved__13TfSmallVectorINS_20HdSceneIndexObserver14AddedPrimEntryELj16EED2Ev(ptr noundef nonnull align 8 dereferenceable(264) %8) #11
  br label %34

34:                                               ; preds = %30, %26
  call void @_ZN32pxrInternal_v0_24__pxrReserved__13TfSmallVectorINS_20HdSceneIndexObserver16RemovedPrimEntryELj16EED2Ev(ptr noundef nonnull align 8 dereferenceable(136) %7) #11
  br label %35

35:                                               ; preds = %34
  %36 = load ptr, ptr %9, align 8
  %37 = load i32, ptr %10, align 4
  %38 = insertvalue { ptr, i32 } poison, ptr %36, 0
  %39 = insertvalue { ptr, i32 } %38, i32 %37, 1
  resume { ptr, i32 } %39
}