; Function Attrs: mustprogress uwtable
define void @_ZN32pxrInternal_v0_24__pxrReserved__36HdSingleInputFilteringSceneIndexBase13_PrimsRenamedERKNS_16HdSceneIndexBaseERKNS_13TfSmallVectorINS_20HdSceneIndexObserver16RenamedPrimEntryELj16EEE(ptr noundef nonnull align 8 dereferenceable(152) %0, ptr noundef nonnull align 8 dereferenceable(120) %1, ptr noundef nonnull align 1 %2) unnamed_addr #2 align 2 personality ptr @__gxx_personality_v0 {
  %4 = alloca %"class.pxrInternal_v0_24__pxrReserved__::TfSmallVector", align 8
  %5 = alloca %"class.pxrInternal_v0_24__pxrReserved__::TfSmallVector.18", align 8
  %6 = getelementptr inbounds nuw i8, ptr %4, i64 128
  store i32 0, ptr %6, align 8
  %7 = getelementptr inbounds nuw i8, ptr %4, i64 132
  store i32 16, ptr %7, align 4
  %8 = getelementptr inbounds nuw i8, ptr %5, i64 256
  store i32 0, ptr %8, align 8
  %9 = getelementptr inbounds nuw i8, ptr %5, i64 260
  store i32 16, ptr %9, align 4
  invoke void @_ZN32pxrInternal_v0_24__pxrReserved__20HdSceneIndexObserver36ConvertPrimsRenamedToRemovedAndAddedERKNS_16HdSceneIndexBaseERKNS_13TfSmallVectorINS0_16RenamedPrimEntryELj16EEEPNS4_INS0_16RemovedPrimEntryELj16EEEPNS4_INS0_14AddedPrimEntryELj16EEE(ptr noundef nonnull align 8 dereferenceable(120) %1, ptr noundef nonnull align 1 %2, ptr noundef nonnull %4, ptr noundef nonnull %5)
          to label %10 unwind label %85

10:                                               ; preds = %3
  %11 = load ptr, ptr %0, align 8
  %12 = getelementptr inbounds i8, ptr %11, i64 56
  %13 = load ptr, ptr %12, align 8
  invoke void %13(ptr noundef nonnull align 8 dereferenceable(152) %0, ptr noundef nonnull align 8 dereferenceable(120) %1, ptr noundef nonnull align 8 dereferenceable(136) %4)
          to label %14 unwind label %85

14:                                               ; preds = %10
  %15 = load ptr, ptr %0, align 8
  %16 = getelementptr inbounds i8, ptr %15, i64 48
  %17 = load ptr, ptr %16, align 8
  invoke void %17(ptr noundef nonnull align 8 dereferenceable(152) %0, ptr noundef nonnull align 8 dereferenceable(120) %1, ptr noundef nonnull align 8 dereferenceable(264) %5)
          to label %18 unwind label %85

18:                                               ; preds = %14
  %19 = load i32, ptr %9, align 4
  %20 = icmp ult i32 %19, 17
  %21 = load ptr, ptr %5, align 8
  %spec.select.i.i.i.i = select i1 %20, ptr %5, ptr %21
  %22 = load i32, ptr %8, align 8
  %23 = zext i32 %22 to i64
  %24 = getelementptr inbounds %"struct.pxrInternal_v0_24__pxrReserved__::HdSceneIndexObserver::AddedPrimEntry", ptr %spec.select.i.i.i.i, i64 %23
  %.not7.i.i = icmp eq i32 %22, 0
  br i1 %.not7.i.i, label %_ZN32pxrInternal_v0_24__pxrReserved__13TfSmallVectorINS_20HdSceneIndexObserver14AddedPrimEntryELj16EE9_DestructEv.exit.i, label %.lr.ph.i.i

.lr.ph.i.i:                                       ; preds = %18, %_ZN32pxrInternal_v0_24__pxrReserved__20HdSceneIndexObserver14AddedPrimEntryD2Ev.exit.i.i
  %.08.i.i = phi ptr [ %51, %_ZN32pxrInternal_v0_24__pxrReserved__20HdSceneIndexObserver14AddedPrimEntryD2Ev.exit.i.i ], [ %spec.select.i.i.i.i, %18 ]
  %25 = getelementptr inbounds nuw i8, ptr %.08.i.i, i64 8
  %26 = load ptr, ptr %25, align 8
  %27 = ptrtoint ptr %26 to i64
  %28 = and i64 %27, 7
  %.not.i.i.i.i.i = icmp eq i64 %28, 0
  br i1 %.not.i.i.i.i.i, label %_ZN32pxrInternal_v0_24__pxrReserved__7TfTokenD2Ev.exit.i.i.i, label %29

29:                                               ; preds = %.lr.ph.i.i
  %30 = and i64 %27, -8
  %31 = inttoptr i64 %30 to ptr
  %32 = atomicrmw sub ptr %31, i32 2 release, align 4
  br label %_ZN32pxrInternal_v0_24__pxrReserved__7TfTokenD2Ev.exit.i.i.i

_ZN32pxrInternal_v0_24__pxrReserved__7TfTokenD2Ev.exit.i.i.i: ; preds = %29, %.lr.ph.i.i
  %33 = load i32, ptr %.08.i.i, align 4
  %.not.i.i1.i.i.i = icmp eq i32 %33, 0
  br i1 %.not.i.i1.i.i.i, label %_ZN32pxrInternal_v0_24__pxrReserved__20HdSceneIndexObserver14AddedPrimEntryD2Ev.exit.i.i, label %34

34:                                               ; preds = %_ZN32pxrInternal_v0_24__pxrReserved__7TfTokenD2Ev.exit.i.i.i
  %35 = and i32 %33, 255
  %36 = lshr i32 %33, 8
  %37 = zext nneg i32 %35 to i64
  %38 = getelementptr inbounds [257 x ptr], ptr @_ZN32pxrInternal_v0_24__pxrReserved__8Sdf_PoolINS_15Sdf_PathPrimTagELj24ELj8ELj16384EE13_regionStartsE, i64 0, i64 %37
  %39 = load ptr, ptr %38, align 8
  %40 = mul nuw nsw i32 %36, 24
  %41 = zext nneg i32 %40 to i64
  %42 = getelementptr inbounds i8, ptr %39, i64 %41
  %43 = getelementptr inbounds nuw i8, ptr %42, i64 8
  %44 = atomicrmw sub ptr %43, i32 1 seq_cst, align 4
  %45 = and i32 %44, 2147483647
  %46 = icmp eq i32 %45, 1
  br i1 %46, label %47, label %_ZN32pxrInternal_v0_24__pxrReserved__20HdSceneIndexObserver14AddedPrimEntryD2Ev.exit.i.i

47:                                               ; preds = %34
  invoke void @_ZNK32pxrInternal_v0_24__pxrReserved__12Sdf_PathNode8_DestroyEv(ptr noundef nonnull align 8 dereferenceable(16) %42)
          to label %_ZN32pxrInternal_v0_24__pxrReserved__20HdSceneIndexObserver14AddedPrimEntryD2Ev.exit.i.i unwind label %48

48:                                               ; preds = %47
  %49 = landingpad { ptr, i32 }
          catch ptr null
  %50 = extractvalue { ptr, i32 } %49, 0
  call void @__clang_call_terminate(ptr %50) #16
  unreachable

_ZN32pxrInternal_v0_24__pxrReserved__20HdSceneIndexObserver14AddedPrimEntryD2Ev.exit.i.i: ; preds = %47, %34, %_ZN32pxrInternal_v0_24__pxrReserved__7TfTokenD2Ev.exit.i.i.i
  %51 = getelementptr inbounds i8, ptr %.08.i.i, i64 16
  %.not.i.i = icmp eq ptr %51, %24
  br i1 %.not.i.i, label %_ZN32pxrInternal_v0_24__pxrReserved__13TfSmallVectorINS_20HdSceneIndexObserver14AddedPrimEntryELj16EE9_DestructEv.exit.loopexit.i, label %.lr.ph.i.i, !llvm.loop !17

_ZN32pxrInternal_v0_24__pxrReserved__13TfSmallVectorINS_20HdSceneIndexObserver14AddedPrimEntryELj16EE9_DestructEv.exit.loopexit.i: ; preds = %_ZN32pxrInternal_v0_24__pxrReserved__20HdSceneIndexObserver14AddedPrimEntryD2Ev.exit.i.i
  %.pre.i = load i32, ptr %9, align 4
  br label %_ZN32pxrInternal_v0_24__pxrReserved__13TfSmallVectorINS_20HdSceneIndexObserver14AddedPrimEntryELj16EE9_DestructEv.exit.i

_ZN32pxrInternal_v0_24__pxrReserved__13TfSmallVectorINS_20HdSceneIndexObserver14AddedPrimEntryELj16EE9_DestructEv.exit.i: ; preds = %_ZN32pxrInternal_v0_24__pxrReserved__13TfSmallVectorINS_20HdSceneIndexObserver14AddedPrimEntryELj16EE9_DestructEv.exit.loopexit.i, %18
  %52 = phi i32 [ %.pre.i, %_ZN32pxrInternal_v0_24__pxrReserved__13TfSmallVectorINS_20HdSceneIndexObserver14AddedPrimEntryELj16EE9_DestructEv.exit.loopexit.i ], [ %19, %18 ]
  %53 = icmp ult i32 %52, 17
  br i1 %53, label %_ZN32pxrInternal_v0_24__pxrReserved__13TfSmallVectorINS_20HdSceneIndexObserver14AddedPrimEntryELj16EED2Ev.exit, label %54

54:                                               ; preds = %_ZN32pxrInternal_v0_24__pxrReserved__13TfSmallVectorINS_20HdSceneIndexObserver14AddedPrimEntryELj16EE9_DestructEv.exit.i
  %55 = load ptr, ptr %5, align 8
  call void @free(ptr noundef %55) #13
  br label %_ZN32pxrInternal_v0_24__pxrReserved__13TfSmallVectorINS_20HdSceneIndexObserver14AddedPrimEntryELj16EED2Ev.exit

_ZN32pxrInternal_v0_24__pxrReserved__13TfSmallVectorINS_20HdSceneIndexObserver14AddedPrimEntryELj16EED2Ev.exit: ; preds = %_ZN32pxrInternal_v0_24__pxrReserved__13TfSmallVectorINS_20HdSceneIndexObserver14AddedPrimEntryELj16EE9_DestructEv.exit.i, %54
  %56 = load i32, ptr %7, align 4
  %57 = icmp ult i32 %56, 17
  %58 = load ptr, ptr %4, align 8
  %spec.select.i.i.i.i6 = select i1 %57, ptr %4, ptr %58
  %59 = load i32, ptr %6, align 8
  %60 = zext i32 %59 to i64
  %61 = getelementptr inbounds %"struct.pxrInternal_v0_24__pxrReserved__::HdSceneIndexObserver::RemovedPrimEntry", ptr %spec.select.i.i.i.i6, i64 %60
  %.not7.i.i7 = icmp eq i32 %59, 0
  br i1 %.not7.i.i7, label %_ZN32pxrInternal_v0_24__pxrReserved__13TfSmallVectorINS_20HdSceneIndexObserver16RemovedPrimEntryELj16EE9_DestructEv.exit.i, label %.lr.ph.i.i8

.lr.ph.i.i8:                                      ; preds = %_ZN32pxrInternal_v0_24__pxrReserved__13TfSmallVectorINS_20HdSceneIndexObserver14AddedPrimEntryELj16EED2Ev.exit, %_ZN32pxrInternal_v0_24__pxrReserved__20HdSceneIndexObserver16RemovedPrimEntryD2Ev.exit.i.i
  %.08.i.i9 = phi ptr [ %80, %_ZN32pxrInternal_v0_24__pxrReserved__20HdSceneIndexObserver16RemovedPrimEntryD2Ev.exit.i.i ], [ %spec.select.i.i.i.i6, %_ZN32pxrInternal_v0_24__pxrReserved__13TfSmallVectorINS_20HdSceneIndexObserver14AddedPrimEntryELj16EED2Ev.exit ]
  %62 = load i32, ptr %.08.i.i9, align 4
  %.not.i.i.i.i.i10 = icmp eq i32 %62, 0
  br i1 %.not.i.i.i.i.i10, label %_ZN32pxrInternal_v0_24__pxrReserved__20HdSceneIndexObserver16RemovedPrimEntryD2Ev.exit.i.i, label %63

63:                                               ; preds = %.lr.ph.i.i8
  %64 = and i32 %62, 255
  %65 = lshr i32 %62, 8
  %66 = zext nneg i32 %64 to i64
  %67 = getelementptr inbounds [257 x ptr], ptr @_ZN32pxrInternal_v0_24__pxrReserved__8Sdf_PoolINS_15Sdf_PathPrimTagELj24ELj8ELj16384EE13_regionStartsE, i64 0, i64 %66
  %68 = load ptr, ptr %67, align 8
  %69 = mul nuw nsw i32 %65, 24
  %70 = zext nneg i32 %69 to i64
  %71 = getelementptr inbounds i8, ptr %68, i64 %70
  %72 = getelementptr inbounds nuw i8, ptr %71, i64 8
  %73 = atomicrmw sub ptr %72, i32 1 seq_cst, align 4
  %74 = and i32 %73, 2147483647
  %75 = icmp eq i32 %74, 1
  br i1 %75, label %76, label %_ZN32pxrInternal_v0_24__pxrReserved__20HdSceneIndexObserver16RemovedPrimEntryD2Ev.exit.i.i

76:                                               ; preds = %63
  invoke void @_ZNK32pxrInternal_v0_24__pxrReserved__12Sdf_PathNode8_DestroyEv(ptr noundef nonnull align 8 dereferenceable(16) %71)
          to label %_ZN32pxrInternal_v0_24__pxrReserved__20HdSceneIndexObserver16RemovedPrimEntryD2Ev.exit.i.i unwind label %77

77:                                               ; preds = %76
  %78 = landingpad { ptr, i32 }
          catch ptr null
  %79 = extractvalue { ptr, i32 } %78, 0
  call void @__clang_call_terminate(ptr %79) #16
  unreachable

_ZN32pxrInternal_v0_24__pxrReserved__20HdSceneIndexObserver16RemovedPrimEntryD2Ev.exit.i.i: ; preds = %76, %63, %.lr.ph.i.i8
  %80 = getelementptr inbounds i8, ptr %.08.i.i9, i64 8
  %.not.i.i11 = icmp eq ptr %80, %61
  br i1 %.not.i.i11, label %_ZN32pxrInternal_v0_24__pxrReserved__13TfSmallVectorINS_20HdSceneIndexObserver16RemovedPrimEntryELj16EE9_DestructEv.exit.loopexit.i, label %.lr.ph.i.i8, !llvm.loop !19

_ZN32pxrInternal_v0_24__pxrReserved__13TfSmallVectorINS_20HdSceneIndexObserver16RemovedPrimEntryELj16EE9_DestructEv.exit.loopexit.i: ; preds = %_ZN32pxrInternal_v0_24__pxrReserved__20HdSceneIndexObserver16RemovedPrimEntryD2Ev.exit.i.i
  %.pre.i12 = load i32, ptr %7, align 4
  br label %_ZN32pxrInternal_v0_24__pxrReserved__13TfSmallVectorINS_20HdSceneIndexObserver16RemovedPrimEntryELj16EE9_DestructEv.exit.i

_ZN32pxrInternal_v0_24__pxrReserved__13TfSmallVectorINS_20HdSceneIndexObserver16RemovedPrimEntryELj16EE9_DestructEv.exit.i: ; preds = %_ZN32pxrInternal_v0_24__pxrReserved__13TfSmallVectorINS_20HdSceneIndexObserver16RemovedPrimEntryELj16EE9_DestructEv.exit.loopexit.i, %_ZN32pxrInternal_v0_24__pxrReserved__13TfSmallVectorINS_20HdSceneIndexObserver14AddedPrimEntryELj16EED2Ev.exit
  %81 = phi i32 [ %.pre.i12, %_ZN32pxrInternal_v0_24__pxrReserved__13TfSmallVectorINS_20HdSceneIndexObserver16RemovedPrimEntryELj16EE9_DestructEv.exit.loopexit.i ], [ %56, %_ZN32pxrInternal_v0_24__pxrReserved__13TfSmallVectorINS_20HdSceneIndexObserver14AddedPrimEntryELj16EED2Ev.exit ]
  %82 = icmp ult i32 %81, 17
  br i1 %82, label %_ZN32pxrInternal_v0_24__pxrReserved__13TfSmallVectorINS_20HdSceneIndexObserver16RemovedPrimEntryELj16EED2Ev.exit, label %83

83:                                               ; preds = %_ZN32pxrInternal_v0_24__pxrReserved__13TfSmallVectorINS_20HdSceneIndexObserver16RemovedPrimEntryELj16EE9_DestructEv.exit.i
  %84 = load ptr, ptr %4, align 8
  call void @free(ptr noundef %84) #13
  br label %_ZN32pxrInternal_v0_24__pxrReserved__13TfSmallVectorINS_20HdSceneIndexObserver16RemovedPrimEntryELj16EED2Ev.exit

_ZN32pxrInternal_v0_24__pxrReserved__13TfSmallVectorINS_20HdSceneIndexObserver16RemovedPrimEntryELj16EED2Ev.exit: ; preds = %_ZN32pxrInternal_v0_24__pxrReserved__13TfSmallVectorINS_20HdSceneIndexObserver16RemovedPrimEntryELj16EE9_DestructEv.exit.i, %83
  ret void

85:                                               ; preds = %14, %10, %3
  %86 = landingpad { ptr, i32 }
          cleanup
  call void @_ZN32pxrInternal_v0_24__pxrReserved__13TfSmallVectorINS_20HdSceneIndexObserver14AddedPrimEntryELj16EED2Ev(ptr noundef nonnull align 8 dereferenceable(264) %5) #13
  call void @_ZN32pxrInternal_v0_24__pxrReserved__13TfSmallVectorINS_20HdSceneIndexObserver16RemovedPrimEntryELj16EED2Ev(ptr noundef nonnull align 8 dereferenceable(136) %4) #13
  resume { ptr, i32 } %86
}